target datalayout = "e-m:e-p270:32:32-p271:32:32-p272:64:64-i64:64-i128:128-f80:128-n8:16:32:64-S128"
target triple = "x86_64-pc-linux-gnu"

%struct.ForEachState = type { ptr, i32 }
%struct.List = type { i32, i32, i32, ptr, [0 x %union.ListCell] }
%union.ListCell = type { ptr }
%struct.OnCommitItem = type { i32, i32, i32, i32 }

@on_commits = internal global ptr null, align 8

; Function Attrs: nounwind uwtable
define dso_local void @AtEOXact_on_commit_actions(i1 noundef zeroext %0) #0 {
  %2 = alloca i8, align 1
  %3 = alloca ptr, align 8
  %4 = alloca %struct.ForEachState, align 8
  %5 = alloca ptr, align 8
  %6 = zext i1 %0 to i8
  store i8 %6, ptr %2, align 1
  call void @llvm.lifetime.start.p0(i64 8, ptr %3) #12
  call void @llvm.lifetime.start.p0(i64 16, ptr %4) #12
  %7 = getelementptr inbounds nuw %struct.ForEachState, ptr %4, i32 0, i32 0
  %8 = load ptr, ptr @on_commits, align 8
  store ptr %8, ptr %7, align 8
  %9 = getelementptr inbounds nuw %struct.ForEachState, ptr %4, i32 0, i32 1
  store i32 0, ptr %9, align 8
  %10 = getelementptr i8, ptr %4, i64 12
  call void @llvm.memset.p0.i64(ptr align 4 %10, i8 0, i64 4, i1 false)
  br label %11

11:                                               ; preds = %66, %1
  %12 = getelementptr inbounds nuw %struct.ForEachState, ptr %4, i32 0, i32 0
  %13 = load ptr, ptr %12, align 8
  %14 = icmp ne ptr %13, null
  br i1 %14, label %15, label %32

15:                                               ; preds = %11
  %16 = getelementptr inbounds nuw %struct.ForEachState, ptr %4, i32 0, i32 1
  %17 = load i32, ptr %16, align 8
  %18 = getelementptr inbounds nuw %struct.ForEachState, ptr %4, i32 0, i32 0
  %19 = load ptr, ptr %18, align 8
  %20 = getelementptr inbounds nuw %struct.List, ptr %19, i32 0, i32 1
  %21 = load i32, ptr %20, align 4
  %22 = icmp slt i32 %17, %21
  br i1 %22, label %23, label %32

23:                                               ; preds = %15
  %24 = getelementptr inbounds nuw %struct.ForEachState, ptr %4, i32 0, i32 0
  %25 = load ptr, ptr %24, align 8
  %26 = getelementptr inbounds nuw %struct.List, ptr %25, i32 0, i32 3
  %27 = load ptr, ptr %26, align 8
  %28 = getelementptr inbounds nuw %struct.ForEachState, ptr %4, i32 0, i32 1
  %29 = load i32, ptr %28, align 8
  %30 = sext i32 %29 to i64
  %31 = getelementptr inbounds %union.ListCell, ptr %27, i64 %30
  store ptr %31, ptr %3, align 8
  br label %33

32:                                               ; preds = %15, %11
  store ptr null, ptr %3, align 8
  br label %33

33:                                               ; preds = %32, %23
  %34 = phi i32 [ 1, %23 ], [ 0, %32 ]
  %35 = icmp ne i32 %34, 0
  br i1 %35, label %37, label %36

36:                                               ; preds = %33
  call void @llvm.lifetime.end.p0(i64 16, ptr %4) #12
  br label %70

37:                                               ; preds = %33
  call void @llvm.lifetime.start.p0(i64 8, ptr %5) #12
  %38 = load ptr, ptr %3, align 8
  %39 = load ptr, ptr %38, align 8
  store ptr %39, ptr %5, align 8
  %40 = load i8, ptr %2, align 1, !range !6, !noundef !7
  %41 = trunc i8 %40 to i1
  br i1 %41, label %42, label %47

42:                                               ; preds = %37
  %43 = load ptr, ptr %5, align 8
  %44 = getelementptr inbounds nuw %struct.OnCommitItem, ptr %43, i32 0, i32 3
  %45 = load i32, ptr %44, align 4
  %46 = icmp ne i32 %45, 0
  br i1 %46, label %52, label %60

47:                                               ; preds = %37
  %48 = load ptr, ptr %5, align 8
  %49 = getelementptr inbounds nuw %struct.OnCommitItem, ptr %48, i32 0, i32 2
  %50 = load i32, ptr %49, align 4
  %51 = icmp ne i32 %50, 0
  br i1 %51, label %52, label %60

52:                                               ; preds = %47, %42
  %53 = load ptr, ptr @on_commits, align 8
  %54 = getelementptr inbounds nuw %struct.ForEachState, ptr %4, i32 0, i32 1
  %55 = load i32, ptr %54, align 8
  %56 = add i32 %55, -1
  store i32 %56, ptr %54, align 8
  %57 = call ptr @list_delete_nth_cell(ptr noundef %53, i32 noundef %55)
  %58 = getelementptr inbounds nuw %struct.ForEachState, ptr %4, i32 0, i32 0
  store ptr %57, ptr %58, align 8
  store ptr %57, ptr @on_commits, align 8
  %59 = load ptr, ptr %5, align 8
  call void @pfree(ptr noundef %59)
  br label %65

60:                                               ; preds = %47, %42
  %61 = load ptr, ptr %5, align 8
  %62 = getelementptr inbounds nuw %struct.OnCommitItem, ptr %61, i32 0, i32 2
  store i32 0, ptr %62, align 4
  %63 = load ptr, ptr %5, align 8
  %64 = getelementptr inbounds nuw %struct.OnCommitItem, ptr %63, i32 0, i32 3
  store i32 0, ptr %64, align 4
  br label %65

65:                                               ; preds = %60, %52
  call void @llvm.lifetime.end.p0(i64 8, ptr %5) #12
  br label %66

66:                                               ; preds = %65
  %67 = getelementptr inbounds nuw %struct.ForEachState, ptr %4, i32 0, i32 1
  %68 = load i32, ptr %67, align 8
  %69 = add i32 %68, 1
  store i32 %69, ptr %67, align 8
  br label %11, !llvm.loop !69

70:                                               ; preds = %36
  call void @llvm.lifetime.end.p0(i64 8, ptr %3) #12
  ret void
}