; Function Attrs: nounwind uwtable
define dso_local void @AtEOXact_on_commit_actions(i1 noundef zeroext %0) local_unnamed_addr #0 {
  %2 = load ptr, ptr @on_commits, align 8
  %.not16 = icmp eq ptr %2, null
  br i1 %.not16, label %._crit_edge, label %.lr.ph

.lr.ph:                                           ; preds = %1
  br i1 %0, label %.lr.ph.split.us, label %.lr.ph.split

.lr.ph.split.us:                                  ; preds = %.lr.ph, %20
  %.sroa.0.018.us = phi ptr [ %.sroa.0.1.us, %20 ], [ %2, %.lr.ph ]
  %.sroa.7.017.us = phi i32 [ %.sroa.7.1.us, %20 ], [ 0, %.lr.ph ]
  %3 = getelementptr inbounds nuw i8, ptr %.sroa.0.018.us, i64 4
  %4 = load i32, ptr %3, align 4
  %5 = icmp slt i32 %.sroa.7.017.us, %4
  br i1 %5, label %6, label %._crit_edge

6:                                                ; preds = %.lr.ph.split.us
  %7 = getelementptr inbounds nuw i8, ptr %.sroa.0.018.us, i64 16
  %8 = load ptr, ptr %7, align 8
  %9 = sext i32 %.sroa.7.017.us to i64
  %10 = getelementptr inbounds %union.ListCell, ptr %8, i64 %9
  %11 = load ptr, ptr %10, align 8
  %12 = getelementptr inbounds nuw i8, ptr %11, i64 12
  %13 = load i32, ptr %12, align 4
  %.not13.us = icmp eq i32 %13, 0
  br i1 %.not13.us, label %17, label %14

14:                                               ; preds = %6
  %15 = load ptr, ptr @on_commits, align 8
  %16 = tail call ptr @list_delete_nth_cell(ptr noundef %15, i32 noundef %.sroa.7.017.us) #15
  store ptr %16, ptr @on_commits, align 8
  tail call void @pfree(ptr noundef nonnull %11) #15
  br label %20

17:                                               ; preds = %6
  %18 = getelementptr inbounds nuw i8, ptr %11, i64 8
  store i32 0, ptr %18, align 4
  %19 = add nsw i32 %.sroa.7.017.us, 1
  br label %20

20:                                               ; preds = %17, %14
  %.sroa.7.1.us = phi i32 [ %.sroa.7.017.us, %14 ], [ %19, %17 ]
  %.sroa.0.1.us = phi ptr [ %16, %14 ], [ %.sroa.0.018.us, %17 ]
  %.not.us = icmp eq ptr %.sroa.0.1.us, null
  br i1 %.not.us, label %._crit_edge, label %.lr.ph.split.us, !llvm.loop !45

.lr.ph.split:                                     ; preds = %.lr.ph, %38
  %.sroa.0.018 = phi ptr [ %.sroa.0.1, %38 ], [ %2, %.lr.ph ]
  %.sroa.7.017 = phi i32 [ %.sroa.7.1, %38 ], [ 0, %.lr.ph ]
  %21 = getelementptr inbounds nuw i8, ptr %.sroa.0.018, i64 4
  %22 = load i32, ptr %21, align 4
  %23 = icmp slt i32 %.sroa.7.017, %22
  br i1 %23, label %24, label %._crit_edge

._crit_edge:                                      ; preds = %38, %.lr.ph.split, %20, %.lr.ph.split.us, %1
  ret void

24:                                               ; preds = %.lr.ph.split
  %25 = getelementptr inbounds nuw i8, ptr %.sroa.0.018, i64 16
  %26 = load ptr, ptr %25, align 8
  %27 = sext i32 %.sroa.7.017 to i64
  %28 = getelementptr inbounds %union.ListCell, ptr %26, i64 %27
  %29 = load ptr, ptr %28, align 8
  %30 = getelementptr inbounds nuw i8, ptr %29, i64 8
  %31 = load i32, ptr %30, align 4
  %.not12 = icmp eq i32 %31, 0
  br i1 %.not12, label %35, label %32

32:                                               ; preds = %24
  %33 = load ptr, ptr @on_commits, align 8
  %34 = tail call ptr @list_delete_nth_cell(ptr noundef %33, i32 noundef %.sroa.7.017) #15
  store ptr %34, ptr @on_commits, align 8
  tail call void @pfree(ptr noundef nonnull %29) #15
  br label %38

35:                                               ; preds = %24
  %36 = getelementptr inbounds nuw i8, ptr %29, i64 12
  store i32 0, ptr %36, align 4
  %37 = add nsw i32 %.sroa.7.017, 1
  br label %38

38:                                               ; preds = %35, %32
  %.sroa.7.1 = phi i32 [ %.sroa.7.017, %32 ], [ %37, %35 ]
  %.sroa.0.1 = phi ptr [ %34, %32 ], [ %.sroa.0.018, %35 ]
  %.not = icmp eq ptr %.sroa.0.1, null
  br i1 %.not, label %._crit_edge, label %.lr.ph.split, !llvm.loop !45
}